target datalayout = "e-m:e-p270:32:32-p271:32:32-p272:64:64-i64:64-i128:128-f80:128-n8:16:32:64-S128"
target triple = "x86_64-pc-linux-gnu"

%struct.jit_State = type { %struct.GCtrace, ptr, ptr, ptr, ptr, ptr, ptr, i32, i32, i32, i8, i8, %struct.IRType1, i8, %struct.FoldState, ptr, i32, i32, i32, i32, i32, i32, i32, [1 x i32], [5 x %union.TValue], [3 x %union.TValue], ptr, i32, i32, i32, i32, ptr, ptr, i32, i32, i8, ptr, i32, i32, i16, [101 x i16], [258 x i32], [15 x i32], [16 x ptr], [64 x %struct.HotPenalty], i32, [16 x %struct.BPropEntry], i32, %struct.ScEvEntry, ptr, i32, i32, i32, ptr, i32, i32, ptr, ptr, ptr, i64, i64, %union.TValue, ptr, i32, i32 }
%struct.GCtrace = type { %struct.GCRef, i8, i8, i16, i32, i32, %struct.GCRef, ptr, i32, i32, ptr, ptr, %struct.GCRef, %struct.MRef, i32, i32, ptr, i32, i16, i16, i16, i16, i16, i16, i16, i8, i8, i8, i8 }
%struct.GCRef = type { i64 }
%struct.MRef = type { i64 }
%struct.IRType1 = type { i8 }
%struct.FoldState = type { %union.IRIns, [2 x %union.IRIns], [2 x %union.IRIns] }
%union.IRIns = type { %struct.GCRef }
%struct.HotPenalty = type { %struct.MRef, i16, i16 }
%struct.BPropEntry = type { i16, i16, i32 }
%struct.ScEvEntry = type { %struct.MRef, i16, i16, i16, i16, %struct.IRType1, i8 }
%union.TValue = type { i64 }
%struct.RecordIndex = type { %union.TValue, %union.TValue, %union.TValue, %union.TValue, ptr, ptr, i32, i32, i32, i32, i32, i32 }
%struct.lua_State = type { %struct.GCRef, i8, i8, i8, i8, %struct.MRef, %struct.GCRef, ptr, ptr, %struct.MRef, %struct.MRef, %struct.GCRef, %struct.GCRef, ptr, i32 }
%struct.GCfuncL = type { %struct.GCRef, i8, i8, i8, i8, %struct.GCRef, %struct.GCRef, %struct.MRef, [1 x %struct.GCRef] }
%struct.GCproto = type { %struct.GCRef, i8, i8, i8, i8, i32, i32, %struct.GCRef, %struct.MRef, %struct.MRef, i32, i32, i32, i8, i8, i16, %struct.GCRef, i32, i32, %struct.MRef, %struct.MRef, %struct.MRef }

@.str = private unnamed_addr constant [23 x i8] c"copy of dead GC object\00", align 1

; Function Attrs: alwaysinline nounwind uwtable
define internal void @checklivetv(ptr noundef %0, ptr noundef %1, ptr noundef %2) #3 {
  %4 = alloca ptr, align 8
  %5 = alloca ptr, align 8
  %6 = alloca ptr, align 8
  store ptr %0, ptr %4, align 8, !tbaa !82
  store ptr %1, ptr %5, align 8, !tbaa !11
  store ptr %2, ptr %6, align 8, !tbaa !183
  ret void
}

; Function Attrs: nounwind uwtable
define hidden void @lj_record_call(ptr noundef %0, i32 noundef %1, i64 noundef %2) #0 {
  %4 = alloca ptr, align 8
  %5 = alloca i32, align 4
  %6 = alloca i64, align 8
  store ptr %0, ptr %4, align 8, !tbaa !4
  store i32 %1, ptr %5, align 4, !tbaa !9
  store i64 %2, ptr %6, align 8, !tbaa !49
  %7 = load ptr, ptr %4, align 8, !tbaa !4
  %8 = load i32, ptr %5, align 4, !tbaa !9
  %9 = load i64, ptr %6, align 8, !tbaa !49
  call void @rec_call_setup(ptr noundef %7, i32 noundef %8, i64 noundef %9)
  %10 = load ptr, ptr %4, align 8, !tbaa !4
  %11 = getelementptr inbounds nuw %struct.jit_State, ptr %10, i32 0, i32 21
  %12 = load i32, ptr %11, align 4, !tbaa !37
  %13 = add nsw i32 %12, 1
  store i32 %13, ptr %11, align 4, !tbaa !37
  %14 = load i32, ptr %5, align 4, !tbaa !9
  %15 = add i32 %14, 1
  %16 = add i32 %15, 1
  %17 = load ptr, ptr %4, align 8, !tbaa !4
  %18 = getelementptr inbounds nuw %struct.jit_State, ptr %17, i32 0, i32 6
  %19 = load ptr, ptr %18, align 8, !tbaa !50
  %20 = zext i32 %16 to i64
  %21 = getelementptr inbounds nuw i32, ptr %19, i64 %20
  store ptr %21, ptr %18, align 8, !tbaa !50
  %22 = load i32, ptr %5, align 4, !tbaa !9
  %23 = add i32 %22, 1
  %24 = add i32 %23, 1
  %25 = load ptr, ptr %4, align 8, !tbaa !4
  %26 = getelementptr inbounds nuw %struct.jit_State, ptr %25, i32 0, i32 9
  %27 = load i32, ptr %26, align 8, !tbaa !43
  %28 = add i32 %27, %24
  store i32 %28, ptr %26, align 8, !tbaa !43
  %29 = load ptr, ptr %4, align 8, !tbaa !4
  %30 = getelementptr inbounds nuw %struct.jit_State, ptr %29, i32 0, i32 9
  %31 = load i32, ptr %30, align 8, !tbaa !43
  %32 = load ptr, ptr %4, align 8, !tbaa !4
  %33 = getelementptr inbounds nuw %struct.jit_State, ptr %32, i32 0, i32 8
  %34 = load i32, ptr %33, align 4, !tbaa !44
  %35 = add i32 %31, %34
  %36 = icmp uge i32 %35, 250
  br i1 %36, label %37, label %39

37:                                               ; preds = %3
  %38 = load ptr, ptr %4, align 8, !tbaa !4
  call void @lj_trace_err(ptr noundef %38, i32 noundef 3) #10
  unreachable

39:                                               ; preds = %3
  ret void
}

; Function Attrs: alwaysinline nounwind uwtable
define internal void @copyTV(ptr noundef %0, ptr noundef %1, ptr noundef %2) #3 {
  %4 = alloca ptr, align 8
  %5 = alloca ptr, align 8
  %6 = alloca ptr, align 8
  store ptr %0, ptr %4, align 8, !tbaa !82
  store ptr %1, ptr %5, align 8, !tbaa !11
  store ptr %2, ptr %6, align 8, !tbaa !11
  %7 = load ptr, ptr %5, align 8, !tbaa !11
  %8 = load ptr, ptr %6, align 8, !tbaa !11
  call void @llvm.memcpy.p0.p0.i64(ptr align 8 %7, ptr align 8 %8, i64 8, i1 false), !tbaa.struct !83
  %9 = load ptr, ptr %4, align 8, !tbaa !82
  %10 = load ptr, ptr %5, align 8, !tbaa !11
  call void @checklivetv(ptr noundef %9, ptr noundef %10, ptr noundef @.str)
  ret void
}

; Function Attrs: nounwind uwtable
define internal i32 @rec_mm_prep(ptr noundef %0, ptr noundef %1) #0 {
  %3 = alloca ptr, align 8
  %4 = alloca ptr, align 8
  %5 = alloca i32, align 4
  %6 = alloca i32, align 4
  store ptr %0, ptr %3, align 8, !tbaa !4
  store ptr %1, ptr %4, align 8, !tbaa !77
  call void @llvm.lifetime.start.p0(i64 4, ptr %5) #9
  call void @llvm.lifetime.start.p0(i64 4, ptr %6) #9
  %7 = load ptr, ptr %4, align 8, !tbaa !77
  %8 = icmp eq ptr %7, @lj_cont_cat
  br i1 %8, label %9, label %13

9:                                                ; preds = %2
  %10 = load ptr, ptr %3, align 8, !tbaa !4
  %11 = getelementptr inbounds nuw %struct.jit_State, ptr %10, i32 0, i32 8
  %12 = load i32, ptr %11, align 4, !tbaa !44
  br label %32

13:                                               ; preds = %2
  %14 = load ptr, ptr %3, align 8, !tbaa !4
  %15 = getelementptr inbounds nuw %struct.jit_State, ptr %14, i32 0, i32 2
  %16 = load ptr, ptr %15, align 8, !tbaa !51
  %17 = getelementptr inbounds nuw %struct.lua_State, ptr %16, i32 0, i32 7
  %18 = load ptr, ptr %17, align 8, !tbaa !52
  %19 = getelementptr inbounds %union.TValue, ptr %18, i64 -2
  %20 = getelementptr inbounds nuw %struct.GCRef, ptr %19, i32 0, i32 0
  %21 = load i64, ptr %20, align 8, !tbaa !15
  %22 = and i64 %21, 140737488355327
  %23 = inttoptr i64 %22 to ptr
  %24 = getelementptr inbounds nuw %struct.GCfuncL, ptr %23, i32 0, i32 7
  %25 = getelementptr inbounds nuw %struct.MRef, ptr %24, i32 0, i32 0
  %26 = load i64, ptr %25, align 8, !tbaa !15
  %27 = inttoptr i64 %26 to ptr
  %28 = getelementptr inbounds i8, ptr %27, i64 -104
  %29 = getelementptr inbounds nuw %struct.GCproto, ptr %28, i32 0, i32 4
  %30 = load i8, ptr %29, align 1, !tbaa !75
  %31 = zext i8 %30 to i32
  br label %32

32:                                               ; preds = %13, %9
  %33 = phi i32 [ %12, %9 ], [ %31, %13 ]
  store i32 %33, ptr %6, align 4, !tbaa !9
  %34 = load ptr, ptr %3, align 8, !tbaa !4
  %35 = load ptr, ptr %4, align 8, !tbaa !77
  %36 = ptrtoint ptr %35 to i64
  %37 = call i32 @lj_ir_k64(ptr noundef %34, i32 noundef 28, i64 noundef %36)
  %38 = load ptr, ptr %3, align 8, !tbaa !4
  %39 = getelementptr inbounds nuw %struct.jit_State, ptr %38, i32 0, i32 6
  %40 = load ptr, ptr %39, align 8, !tbaa !50
  %41 = load i32, ptr %6, align 4, !tbaa !9
  %42 = zext i32 %41 to i64
  %43 = getelementptr inbounds nuw i32, ptr %40, i64 %42
  store i32 %37, ptr %43, align 4, !tbaa !9
  %44 = load ptr, ptr %3, align 8, !tbaa !4
  %45 = getelementptr inbounds nuw %struct.jit_State, ptr %44, i32 0, i32 6
  %46 = load ptr, ptr %45, align 8, !tbaa !50
  %47 = load i32, ptr %6, align 4, !tbaa !9
  %48 = add i32 %47, 1
  %49 = zext i32 %48 to i64
  %50 = getelementptr inbounds nuw i32, ptr %46, i64 %49
  store i32 131072, ptr %50, align 4, !tbaa !9
  %51 = load ptr, ptr %3, align 8, !tbaa !4
  %52 = getelementptr inbounds nuw %struct.jit_State, ptr %51, i32 0, i32 21
  %53 = load i32, ptr %52, align 4, !tbaa !37
  %54 = add nsw i32 %53, 1
  store i32 %54, ptr %52, align 4, !tbaa !37
  %55 = load ptr, ptr %3, align 8, !tbaa !4
  %56 = getelementptr inbounds nuw %struct.jit_State, ptr %55, i32 0, i32 8
  %57 = load i32, ptr %56, align 4, !tbaa !44
  store i32 %57, ptr %5, align 4, !tbaa !9
  br label %58

58:                                               ; preds = %69, %32
  %59 = load i32, ptr %5, align 4, !tbaa !9
  %60 = load i32, ptr %6, align 4, !tbaa !9
  %61 = icmp ult i32 %59, %60
  br i1 %61, label %62, label %72

62:                                               ; preds = %58
  %63 = load ptr, ptr %3, align 8, !tbaa !4
  %64 = getelementptr inbounds nuw %struct.jit_State, ptr %63, i32 0, i32 6
  %65 = load ptr, ptr %64, align 8, !tbaa !50
  %66 = load i32, ptr %5, align 4, !tbaa !9
  %67 = zext i32 %66 to i64
  %68 = getelementptr inbounds nuw i32, ptr %65, i64 %67
  store i32 0, ptr %68, align 4, !tbaa !9
  br label %69

69:                                               ; preds = %62
  %70 = load i32, ptr %5, align 4, !tbaa !9
  %71 = add i32 %70, 1
  store i32 %71, ptr %5, align 4, !tbaa !9
  br label %58, !llvm.loop !104

72:                                               ; preds = %58
  %73 = load i32, ptr %6, align 4, !tbaa !9
  %74 = add i32 %73, 1
  %75 = add i32 %74, 1
  call void @llvm.lifetime.end.p0(i64 4, ptr %6) #9
  call void @llvm.lifetime.end.p0(i64 4, ptr %5) #9
  ret i32 %75
}

; Function Attrs: nounwind uwtable
define internal void @rec_mm_callcomp(ptr noundef %0, ptr noundef %1, i32 noundef %2) #0 {
  %4 = alloca ptr, align 8
  %5 = alloca ptr, align 8
  %6 = alloca i32, align 4
  %7 = alloca i32, align 4
  %8 = alloca ptr, align 8
  %9 = alloca ptr, align 8
  store ptr %0, ptr %4, align 8, !tbaa !4
  store ptr %1, ptr %5, align 8, !tbaa !90
  store i32 %2, ptr %6, align 4, !tbaa !9
  call void @llvm.lifetime.start.p0(i64 4, ptr %7) #9
  %10 = load ptr, ptr %4, align 8, !tbaa !4
  %11 = load i32, ptr %6, align 4, !tbaa !9
  %12 = and i32 %11, 1
  %13 = icmp ne i32 %12, 0
  %14 = select i1 %13, ptr @lj_cont_condf, ptr @lj_cont_condt
  %15 = call i32 @rec_mm_prep(ptr noundef %10, ptr noundef %14)
  store i32 %15, ptr %7, align 4, !tbaa !9
  call void @llvm.lifetime.start.p0(i64 8, ptr %8) #9
  %16 = load ptr, ptr %4, align 8, !tbaa !4
  %17 = getelementptr inbounds nuw %struct.jit_State, ptr %16, i32 0, i32 6
  %18 = load ptr, ptr %17, align 8, !tbaa !50
  %19 = load i32, ptr %7, align 4, !tbaa !9
  %20 = zext i32 %19 to i64
  %21 = getelementptr inbounds nuw i32, ptr %18, i64 %20
  %22 = getelementptr inbounds i32, ptr %21, i64 1
  store ptr %22, ptr %8, align 8, !tbaa !54
  call void @llvm.lifetime.start.p0(i64 8, ptr %9) #9
  %23 = load ptr, ptr %4, align 8, !tbaa !4
  %24 = getelementptr inbounds nuw %struct.jit_State, ptr %23, i32 0, i32 2
  %25 = load ptr, ptr %24, align 8, !tbaa !51
  %26 = getelementptr inbounds nuw %struct.lua_State, ptr %25, i32 0, i32 7
  %27 = load ptr, ptr %26, align 8, !tbaa !52
  %28 = load i32, ptr %7, align 4, !tbaa !9
  %29 = zext i32 %28 to i64
  %30 = getelementptr inbounds nuw %union.TValue, ptr %27, i64 %29
  %31 = getelementptr inbounds %union.TValue, ptr %30, i64 1
  store ptr %31, ptr %9, align 8, !tbaa !11
  %32 = load ptr, ptr %5, align 8, !tbaa !90
  %33 = getelementptr inbounds nuw %struct.RecordIndex, ptr %32, i32 0, i32 10
  %34 = load i32, ptr %33, align 8, !tbaa !59
  %35 = load ptr, ptr %8, align 8, !tbaa !54
  %36 = getelementptr inbounds i32, ptr %35, i64 -1
  store i32 %34, ptr %36, align 4, !tbaa !9
  %37 = load ptr, ptr %5, align 8, !tbaa !90
  %38 = getelementptr inbounds nuw %struct.RecordIndex, ptr %37, i32 0, i32 8
  %39 = load i32, ptr %38, align 8, !tbaa !99
  %40 = load ptr, ptr %8, align 8, !tbaa !54
  %41 = getelementptr inbounds i32, ptr %40, i64 1
  store i32 %39, ptr %41, align 4, !tbaa !9
  %42 = load ptr, ptr %5, align 8, !tbaa !90
  %43 = getelementptr inbounds nuw %struct.RecordIndex, ptr %42, i32 0, i32 7
  %44 = load i32, ptr %43, align 4, !tbaa !98
  %45 = load ptr, ptr %8, align 8, !tbaa !54
  %46 = getelementptr inbounds i32, ptr %45, i64 2
  store i32 %44, ptr %46, align 4, !tbaa !9
  %47 = load ptr, ptr %4, align 8, !tbaa !4
  %48 = getelementptr inbounds nuw %struct.jit_State, ptr %47, i32 0, i32 2
  %49 = load ptr, ptr %48, align 8, !tbaa !51
  %50 = load ptr, ptr %9, align 8, !tbaa !11
  %51 = getelementptr inbounds %union.TValue, ptr %50, i64 -1
  %52 = load ptr, ptr %5, align 8, !tbaa !90
  %53 = getelementptr inbounds nuw %struct.RecordIndex, ptr %52, i32 0, i32 3
  call void @copyTV(ptr noundef %49, ptr noundef %51, ptr noundef %53)
  %54 = load ptr, ptr %4, align 8, !tbaa !4
  %55 = getelementptr inbounds nuw %struct.jit_State, ptr %54, i32 0, i32 2
  %56 = load ptr, ptr %55, align 8, !tbaa !51
  %57 = load ptr, ptr %9, align 8, !tbaa !11
  %58 = getelementptr inbounds %union.TValue, ptr %57, i64 1
  %59 = load ptr, ptr %5, align 8, !tbaa !90
  %60 = getelementptr inbounds nuw %struct.RecordIndex, ptr %59, i32 0, i32 2
  call void @copyTV(ptr noundef %56, ptr noundef %58, ptr noundef %60)
  %61 = load ptr, ptr %4, align 8, !tbaa !4
  %62 = getelementptr inbounds nuw %struct.jit_State, ptr %61, i32 0, i32 2
  %63 = load ptr, ptr %62, align 8, !tbaa !51
  %64 = load ptr, ptr %9, align 8, !tbaa !11
  %65 = getelementptr inbounds %union.TValue, ptr %64, i64 2
  %66 = load ptr, ptr %5, align 8, !tbaa !90
  %67 = getelementptr inbounds nuw %struct.RecordIndex, ptr %66, i32 0, i32 1
  call void @copyTV(ptr noundef %63, ptr noundef %65, ptr noundef %67)
  %68 = load ptr, ptr %4, align 8, !tbaa !4
  %69 = load i32, ptr %7, align 4, !tbaa !9
  call void @lj_record_call(ptr noundef %68, i32 noundef %69, i64 noundef 2)
  call void @llvm.lifetime.end.p0(i64 8, ptr %9) #9
  call void @llvm.lifetime.end.p0(i64 8, ptr %8) #9
  call void @llvm.lifetime.end.p0(i64 4, ptr %7) #9
  ret void
}