; Function Attrs: nounwind uwtable
define internal fastcc void @rec_mm_callcomp(ptr noundef %0, ptr noundef nonnull readonly captures(none) %1, i32 noundef range(i32 0, 256) %2) unnamed_addr #0 {
  %4 = and i32 %2, 1
  %.not = icmp eq i32 %4, 0
  %5 = getelementptr inbounds nuw i8, ptr %0, i64 128
  %6 = load ptr, ptr %5, align 8, !tbaa !44
  %7 = getelementptr inbounds nuw i8, ptr %6, i64 32
  %8 = load ptr, ptr %7, align 8, !tbaa !45
  %9 = getelementptr inbounds i8, ptr %8, i64 -16
  %10 = load i64, ptr %9, align 8, !tbaa !4
  %11 = and i64 %10, 140737488355327
  %12 = inttoptr i64 %11 to ptr
  %13 = getelementptr inbounds nuw i8, ptr %12, i64 32
  %14 = load i64, ptr %13, align 8, !tbaa !4
  %15 = inttoptr i64 %14 to ptr
  %16 = getelementptr inbounds i8, ptr %15, i64 -93
  %17 = load i8, ptr %16, align 1, !tbaa !66
  %18 = zext i8 %17 to i32
  %19 = select i1 %.not, i64 ptrtoint (ptr @lj_cont_condt to i64), i64 ptrtoint (ptr @lj_cont_condf to i64)
  %20 = tail call i32 @lj_ir_k64(ptr noundef nonnull %0, i32 noundef 28, i64 noundef %19) #8
  %21 = getelementptr inbounds nuw i8, ptr %0, i64 160
  %22 = load ptr, ptr %21, align 8, !tbaa !43
  %23 = zext i8 %17 to i64
  %24 = getelementptr inbounds nuw i32, ptr %22, i64 %23
  store i32 %20, ptr %24, align 4, !tbaa !37
  %25 = getelementptr inbounds nuw i8, ptr %24, i64 4
  store i32 131072, ptr %25, align 4, !tbaa !37
  %26 = getelementptr inbounds nuw i8, ptr %0, i64 252
  %27 = load i32, ptr %26, align 4, !tbaa !31
  %28 = add nsw i32 %27, 1
  store i32 %28, ptr %26, align 4, !tbaa !31
  %29 = getelementptr inbounds nuw i8, ptr %0, i64 172
  %30 = load i32, ptr %29, align 4, !tbaa !36
  %31 = icmp ult i32 %30, %18
  br i1 %31, label %.lr.ph.preheader.i, label %rec_mm_prep.exit

.lr.ph.preheader.i:                               ; preds = %3
  %32 = zext nneg i32 %30 to i64
  %33 = shl nuw nsw i64 %32, 2
  %scevgep.i = getelementptr i8, ptr %22, i64 %33
  %34 = xor i32 %30, -1
  %35 = add nsw i32 %34, %18
  %36 = zext i32 %35 to i64
  %37 = shl nuw nsw i64 %36, 2
  %38 = add nuw nsw i64 %37, 4
  tail call void @llvm.memset.p0.i64(ptr noundef nonnull align 4 dereferenceable(1) %scevgep.i, i8 0, i64 %38, i1 false), !tbaa !37
  br label %rec_mm_prep.exit

rec_mm_prep.exit:                                 ; preds = %3, %.lr.ph.preheader.i
  %39 = add nuw nsw i32 %18, 2
  %40 = zext nneg i32 %39 to i64
  %41 = getelementptr inbounds nuw i32, ptr %22, i64 %40
  %42 = load ptr, ptr %5, align 8, !tbaa !44
  %43 = getelementptr inbounds nuw i8, ptr %42, i64 32
  %44 = load ptr, ptr %43, align 8, !tbaa !45
  %45 = getelementptr inbounds nuw %union.TValue, ptr %44, i64 %40
  %46 = getelementptr inbounds nuw i8, ptr %1, i64 64
  %47 = load i32, ptr %46, align 8, !tbaa !52
  store i32 %47, ptr %41, align 4, !tbaa !37
  %48 = getelementptr inbounds nuw i8, ptr %1, i64 56
  %49 = load i32, ptr %48, align 8, !tbaa !83
  %50 = getelementptr inbounds nuw i8, ptr %41, i64 8
  store i32 %49, ptr %50, align 4, !tbaa !37
  %51 = getelementptr inbounds nuw i8, ptr %1, i64 52
  %52 = load i32, ptr %51, align 4, !tbaa !82
  %53 = getelementptr inbounds nuw i8, ptr %41, i64 12
  store i32 %52, ptr %53, align 4, !tbaa !37
  %54 = getelementptr inbounds nuw i8, ptr %1, i64 24
  %55 = load i64, ptr %54, align 8, !tbaa !4
  store i64 %55, ptr %45, align 8, !tbaa !4
  %56 = getelementptr inbounds nuw i8, ptr %45, i64 16
  %57 = getelementptr inbounds nuw i8, ptr %1, i64 16
  %58 = load i64, ptr %57, align 8, !tbaa !4
  store i64 %58, ptr %56, align 8, !tbaa !4
  %59 = getelementptr inbounds nuw i8, ptr %45, i64 24
  %60 = getelementptr inbounds nuw i8, ptr %1, i64 8
  %61 = load i64, ptr %60, align 8, !tbaa !4
  store i64 %61, ptr %59, align 8, !tbaa !4
  tail call fastcc void @rec_call_setup(ptr noundef nonnull %0, i32 noundef %39, i64 noundef 2)
  %62 = load i32, ptr %26, align 4, !tbaa !31
  %63 = add nsw i32 %62, 1
  store i32 %63, ptr %26, align 4, !tbaa !31
  %64 = add nuw nsw i32 %18, 4
  %65 = load ptr, ptr %21, align 8, !tbaa !43
  %66 = zext nneg i32 %64 to i64
  %67 = getelementptr inbounds nuw i32, ptr %65, i64 %66
  store ptr %67, ptr %21, align 8, !tbaa !43
  %68 = getelementptr inbounds nuw i8, ptr %0, i64 176
  %69 = load i32, ptr %68, align 8, !tbaa !35
  %70 = add i32 %69, %64
  store i32 %70, ptr %68, align 8, !tbaa !35
  %71 = load i32, ptr %29, align 4, !tbaa !36
  %72 = add i32 %71, %70
  %73 = icmp ugt i32 %72, 249
  br i1 %73, label %74, label %lj_record_call.exit

74:                                               ; preds = %rec_mm_prep.exit
  tail call void @lj_trace_err(ptr noundef nonnull %0, i32 noundef 3) #9
  unreachable

lj_record_call.exit:                              ; preds = %rec_mm_prep.exit
  ret void
}